target datalayout = "e-m:e-p270:32:32-p271:32:32-p272:64:64-i64:64-i128:128-f80:128-n8:16:32:64-S128"
target triple = "x86_64-unknown-linux-gnu"

%"class.hermes::vm::HermesValue" = type { i64 }
%"class.hermes::vm::CallResult" = type { i16, [2 x i8] }
%"class.hermes::vm::Handle" = type { %"class.hermes::vm::HandleBase" }
%"class.hermes::vm::HandleBase" = type { ptr }
%"class.hermes::vm::JSObject" = type { %"class.hermes::vm::GCCell", %"struct.hermes::vm::ObjectFlags", %"class.hermes::vm::GCPointer", %"class.hermes::vm::GCPointer.5", %"class.hermes::vm::GCPointer.6" }
%"class.hermes::vm::GCCell" = type { %union.anon.4 }
%union.anon.4 = type { %"class.hermes::vm::KindAndSize" }
%"class.hermes::vm::KindAndSize" = type { i32 }
%"struct.hermes::vm::ObjectFlags" = type { i32 }
%"class.hermes::vm::GCPointer" = type { %"class.hermes::vm::GCPointerBase" }
%"class.hermes::vm::GCPointerBase" = type { %"class.hermes::vm::CompressedPointer" }
%"class.hermes::vm::CompressedPointer" = type { %"class.hermes::vm::BasedPointer" }
%"class.hermes::vm::BasedPointer" = type { i32 }
%"class.hermes::vm::GCPointer.5" = type { %"class.hermes::vm::GCPointerBase" }
%"class.hermes::vm::GCPointer.6" = type { %"class.hermes::vm::GCPointerBase" }
%"union.hermes::vm::PropOpFlags" = type { i32 }

; Function Attrs: mustprogress nounwind uwtable
define linkonce_odr hidden noundef ptr @_ZNK6hermes2vm11HermesValue10getPointerEv(ptr noundef nonnull align 8 dereferenceable(8) %this) #0 comdat align 2 {
entry:
  %this.addr = alloca ptr, align 8
  store ptr %this, ptr %this.addr, align 8
  %this1 = load ptr, ptr %this.addr, align 8
  %raw_ = getelementptr inbounds %"class.hermes::vm::HermesValue", ptr %this1, i32 0, i32 0
  %0 = load i64, ptr %raw_, align 8
  %and = and i64 %0, 281474976710655
  %1 = inttoptr i64 %and to ptr
  ret ptr %1
}

; Function Attrs: mustprogress nounwind uwtable
define linkonce_odr hidden noundef ptr @_ZNK6hermes2vm11HermesValue9getObjectEv(ptr noundef nonnull align 8 dereferenceable(8) %this) #0 comdat align 2 {
entry:
  %this.addr = alloca ptr, align 8
  store ptr %this, ptr %this.addr, align 8
  %this1 = load ptr, ptr %this.addr, align 8
  %call = call noundef ptr @_ZNK6hermes2vm11HermesValue10getPointerEv(ptr noundef nonnull align 8 dereferenceable(8) %this1)
  ret ptr %call
}

; Function Attrs: mustprogress nounwind uwtable
define linkonce_odr hidden i64 @_ZNK6hermes2vm10HandleBase14getHermesValueEv(ptr noundef nonnull align 8 dereferenceable(8) %this) #0 comdat align 2 {
entry:
  %retval = alloca %"class.hermes::vm::HermesValue", align 8
  %this.addr = alloca ptr, align 8
  store ptr %this, ptr %this.addr, align 8
  %this1 = load ptr, ptr %this.addr, align 8
  %call = call noundef ptr @_ZNK6hermes2vm10HandleBase9handleRefEv(ptr noundef nonnull align 8 dereferenceable(8) %this1)
  call void @llvm.memcpy.p0.p0.i64(ptr align 8 %retval, ptr align 8 %call, i64 8, i1 false)
  %coerce.dive = getelementptr inbounds %"class.hermes::vm::HermesValue", ptr %retval, i32 0, i32 0
  %0 = load i64, ptr %coerce.dive, align 8
  ret i64 %0
}

; Function Attrs: mustprogress nounwind uwtable
define linkonce_odr hidden noundef ptr @_ZN6hermes2vm17HermesValueTraitsINS0_8JSObjectELb1EE6decodeENS0_11HermesValueE(i64 %value.coerce) #0 comdat align 2 {
entry:
  %value = alloca %"class.hermes::vm::HermesValue", align 8
  %coerce.dive = getelementptr inbounds %"class.hermes::vm::HermesValue", ptr %value, i32 0, i32 0
  store i64 %value.coerce, ptr %coerce.dive, align 8
  %call = call noundef ptr @_ZNK6hermes2vm11HermesValue9getObjectEv(ptr noundef nonnull align 8 dereferenceable(8) %value)
  ret ptr %call
}

; Function Attrs: mustprogress nounwind uwtable
define linkonce_odr hidden noundef ptr @_ZNK6hermes2vm6HandleINS0_8JSObjectEE3getEv(ptr noundef nonnull align 8 dereferenceable(8) %this) #0 comdat align 2 {
entry:
  %this.addr = alloca ptr, align 8
  %agg.tmp = alloca %"class.hermes::vm::HermesValue", align 8
  store ptr %this, ptr %this.addr, align 8
  %this1 = load ptr, ptr %this.addr, align 8
  %call = call i64 @_ZNK6hermes2vm10HandleBase14getHermesValueEv(ptr noundef nonnull align 8 dereferenceable(8) %this1)
  %coerce.dive = getelementptr inbounds %"class.hermes::vm::HermesValue", ptr %agg.tmp, i32 0, i32 0
  store i64 %call, ptr %coerce.dive, align 8
  %coerce.dive2 = getelementptr inbounds %"class.hermes::vm::HermesValue", ptr %agg.tmp, i32 0, i32 0
  %0 = load i64, ptr %coerce.dive2, align 8
  %call3 = call noundef ptr @_ZN6hermes2vm17HermesValueTraitsINS0_8JSObjectELb1EE6decodeENS0_11HermesValueE(i64 %0)
  ret ptr %call3
}

; Function Attrs: mustprogress nounwind uwtable
define linkonce_odr hidden noundef ptr @_ZN6hermes2vm17HermesValueTraitsINS0_8JSObjectELb1EE5arrowERKNS0_11HermesValueE(ptr noundef nonnull align 8 dereferenceable(8) %value) #0 comdat align 2 {
entry:
  %value.addr = alloca ptr, align 8
  %res = alloca ptr, align 8
  %agg.tmp = alloca %"class.hermes::vm::HermesValue", align 8
  store ptr %value, ptr %value.addr, align 8
  %0 = load ptr, ptr %value.addr, align 8
  call void @llvm.memcpy.p0.p0.i64(ptr align 8 %agg.tmp, ptr align 8 %0, i64 8, i1 false)
  %coerce.dive = getelementptr inbounds %"class.hermes::vm::HermesValue", ptr %agg.tmp, i32 0, i32 0
  %1 = load i64, ptr %coerce.dive, align 8
  %call = call noundef ptr @_ZN6hermes2vm17HermesValueTraitsINS0_8JSObjectELb1EE6decodeENS0_11HermesValueE(i64 %1)
  store ptr %call, ptr %res, align 8
  %2 = load ptr, ptr %res, align 8
  ret ptr %2
}

; Function Attrs: mustprogress nounwind uwtable
define linkonce_odr hidden noundef ptr @_ZNK6hermes2vm10HandleBase9handleRefEv(ptr noundef nonnull align 8 dereferenceable(8) %this) #0 comdat align 2 {
entry:
  %this.addr = alloca ptr, align 8
  store ptr %this, ptr %this.addr, align 8
  %this1 = load ptr, ptr %this.addr, align 8
  %handle_ = getelementptr inbounds %"class.hermes::vm::HandleBase", ptr %this1, i32 0, i32 0
  %0 = load ptr, ptr %handle_, align 8
  ret ptr %0
}

; Function Attrs: mustprogress nounwind uwtable
define linkonce_odr hidden void @_ZN6hermes2vm10CallResultIbLNS0_6detail20CallResultSpecializeE1EEC2Eb(ptr noundef nonnull align 4 dereferenceable(2) %this, i1 noundef zeroext %value) unnamed_addr #0 comdat align 2 {
entry:
  %this.addr = alloca ptr, align 8
  %value.addr = alloca i8, align 1
  store ptr %this, ptr %this.addr, align 8
  %frombool = zext i1 %value to i8
  store i8 %frombool, ptr %value.addr, align 1
  %this1 = load ptr, ptr %this.addr, align 8
  %bf.load = load i16, ptr %this1, align 4
  %bf.clear = and i16 %bf.load, -256
  %bf.set = or i16 %bf.clear, 1
  store i16 %bf.set, ptr %this1, align 4
  %0 = load i8, ptr %value.addr, align 1
  %tobool = trunc i8 %0 to i1
  %1 = zext i1 %tobool to i16
  %bf.load2 = load i16, ptr %this1, align 4
  %bf.shl = shl i16 %1, 8
  %bf.clear3 = and i16 %bf.load2, -257
  %bf.set4 = or i16 %bf.clear3, %bf.shl
  store i16 %bf.set4, ptr %this1, align 4
  ret void
}

; Function Attrs: mustprogress nounwind uwtable
define hidden void @_ZN6hermes2vm8JSObject17preventExtensionsEPS1_(ptr noundef %self) #0 align 2 {
entry:
  %self.addr = alloca ptr, align 8
  store ptr %self, ptr %self.addr, align 8
  %0 = load ptr, ptr %self.addr, align 8
  %flags_ = getelementptr inbounds %"class.hermes::vm::JSObject", ptr %0, i32 0, i32 1
  %bf.load = load i32, ptr %flags_, align 4
  %bf.clear = and i32 %bf.load, -2
  %bf.set = or i32 %bf.clear, 1
  store i32 %bf.set, ptr %flags_, align 4
  ret void
}

; Function Attrs: mustprogress nounwind uwtable
define linkonce_odr hidden noundef ptr @_ZNK6hermes2vm6HandleINS0_8JSObjectEEdeEv(ptr noundef nonnull align 8 dereferenceable(8) %this) #0 comdat align 2 {
entry:
  %this.addr = alloca ptr, align 8
  store ptr %this, ptr %this.addr, align 8
  %this1 = load ptr, ptr %this.addr, align 8
  %call = call noundef ptr @_ZNK6hermes2vm6HandleINS0_8JSObjectEE3getEv(ptr noundef nonnull align 8 dereferenceable(8) %this1)
  ret ptr %call
}

; Function Attrs: mustprogress nounwind uwtable
define linkonce_odr hidden noundef zeroext i1 @_ZNK6hermes2vm8JSObject13isProxyObjectEv(ptr noundef nonnull align 4 dereferenceable(20) %this) #0 comdat align 2 {
entry:
  %this.addr = alloca ptr, align 8
  store ptr %this, ptr %this.addr, align 8
  %this1 = load ptr, ptr %this.addr, align 8
  %flags_ = getelementptr inbounds %"class.hermes::vm::JSObject", ptr %this1, i32 0, i32 1
  %bf.load = load i32, ptr %flags_, align 4
  %bf.lshr = lshr i32 %bf.load, 7
  %bf.clear = and i32 %bf.lshr, 1
  %tobool = icmp ne i32 %bf.clear, 0
  ret i1 %tobool
}

; Function Attrs: mustprogress nounwind uwtable
define linkonce_odr hidden noundef ptr @_ZNK6hermes2vm6HandleINS0_8JSObjectEEptEv(ptr noundef nonnull align 8 dereferenceable(8) %this) #0 comdat align 2 {
entry:
  %this.addr = alloca ptr, align 8
  store ptr %this, ptr %this.addr, align 8
  %this1 = load ptr, ptr %this.addr, align 8
  %call = call noundef ptr @_ZNK6hermes2vm10HandleBase9handleRefEv(ptr noundef nonnull align 8 dereferenceable(8) %this1)
  %call2 = call noundef ptr @_ZN6hermes2vm17HermesValueTraitsINS0_8JSObjectELb1EE5arrowERKNS0_11HermesValueE(ptr noundef nonnull align 8 dereferenceable(8) %call)
  ret ptr %call2
}

; Function Attrs: mustprogress nounwind uwtable
define hidden i32 @_ZN6hermes2vm8JSObject17preventExtensionsENS0_6HandleIS1_EERNS0_7RuntimeENS0_11PropOpFlagsE(ptr %selfHandle.coerce, ptr noundef nonnull align 8 dereferenceable(9832) %runtime, i32 %opFlags.coerce) #0 align 2 {
entry:
  %retval = alloca %"class.hermes::vm::CallResult", align 4
  %selfHandle = alloca %"class.hermes::vm::Handle", align 8
  %opFlags = alloca %"union.hermes::vm::PropOpFlags", align 4
  %runtime.addr = alloca ptr, align 8
  %agg.tmp = alloca %"class.hermes::vm::Handle", align 8
  %agg.tmp4 = alloca %"union.hermes::vm::PropOpFlags", align 4
  %coerce.dive = getelementptr inbounds %"class.hermes::vm::Handle", ptr %selfHandle, i32 0, i32 0
  %coerce.dive1 = getelementptr inbounds %"class.hermes::vm::HandleBase", ptr %coerce.dive, i32 0, i32 0
  store ptr %selfHandle.coerce, ptr %coerce.dive1, align 8
  %coerce.dive2 = getelementptr inbounds %"union.hermes::vm::PropOpFlags", ptr %opFlags, i32 0, i32 0
  store i32 %opFlags.coerce, ptr %coerce.dive2, align 4
  store ptr %runtime, ptr %runtime.addr, align 8
  %call = call noundef ptr @_ZNK6hermes2vm6HandleINS0_8JSObjectEEptEv(ptr noundef nonnull align 8 dereferenceable(8) %selfHandle)
  %call3 = call noundef zeroext i1 @_ZNK6hermes2vm8JSObject13isProxyObjectEv(ptr noundef nonnull align 4 dereferenceable(20) %call)
  br i1 %call3, label %if.then, label %if.end

if.then:                                          ; preds = %entry
  call void @llvm.memcpy.p0.p0.i64(ptr align 8 %agg.tmp, ptr align 8 %selfHandle, i64 8, i1 false)
  %0 = load ptr, ptr %runtime.addr, align 8
  call void @llvm.memcpy.p0.p0.i64(ptr align 4 %agg.tmp4, ptr align 4 %opFlags, i64 4, i1 false)
  %coerce.dive5 = getelementptr inbounds %"class.hermes::vm::Handle", ptr %agg.tmp, i32 0, i32 0
  %coerce.dive6 = getelementptr inbounds %"class.hermes::vm::HandleBase", ptr %coerce.dive5, i32 0, i32 0
  %1 = load ptr, ptr %coerce.dive6, align 8
  %coerce.dive7 = getelementptr inbounds %"union.hermes::vm::PropOpFlags", ptr %agg.tmp4, i32 0, i32 0
  %2 = load i32, ptr %coerce.dive7, align 4
  %call8 = call i32 @_ZN6hermes2vm7JSProxy17preventExtensionsENS0_6HandleINS0_8JSObjectEEERNS0_7RuntimeENS0_11PropOpFlagsE(ptr %1, ptr noundef nonnull align 8 dereferenceable(9832) %0, i32 %2)
  store i32 %call8, ptr %retval, align 4
  br label %return

if.end:                                           ; preds = %entry
  %call9 = call noundef ptr @_ZNK6hermes2vm6HandleINS0_8JSObjectEEdeEv(ptr noundef nonnull align 8 dereferenceable(8) %selfHandle)
  call void @_ZN6hermes2vm8JSObject17preventExtensionsEPS1_(ptr noundef %call9)
  call void @_ZN6hermes2vm10CallResultIbLNS0_6detail20CallResultSpecializeE1EEC2Eb(ptr noundef nonnull align 4 dereferenceable(2) %retval, i1 noundef zeroext true)
  br label %return

return:                                           ; preds = %if.end, %if.then
  %3 = load i32, ptr %retval, align 4
  ret i32 %3
}