; Function Attrs: mustprogress nounwind uwtable
define hidden i32 @_ZN6hermes2vm8JSObject17preventExtensionsENS0_6HandleIS1_EERNS0_7RuntimeENS0_11PropOpFlagsE(ptr %selfHandle.coerce, ptr noundef nonnull align 8 dereferenceable(9832) %runtime, i32 %opFlags.coerce) local_unnamed_addr #1 align 2 {
entry:
  %agg.tmp.sroa.0.0.copyload.i.i = load i64, ptr %selfHandle.coerce, align 8
  %and.i.i.i.i.i = and i64 %agg.tmp.sroa.0.0.copyload.i.i, 281474976710655
  %0 = inttoptr i64 %and.i.i.i.i.i to ptr
  %flags_.i = getelementptr inbounds nuw i8, ptr %0, i64 4
  %bf.load.i = load i32, ptr %flags_.i, align 4
  %1 = and i32 %bf.load.i, 128
  %tobool.i.not = icmp eq i32 %1, 0
  br i1 %tobool.i.not, label %if.end, label %if.then

if.then:                                          ; preds = %entry
  %call8 = tail call i32 @_ZN6hermes2vm7JSProxy17preventExtensionsENS0_6HandleINS0_8JSObjectEEERNS0_7RuntimeENS0_11PropOpFlagsE(ptr nonnull %selfHandle.coerce, ptr noundef nonnull align 8 dereferenceable(9832) %runtime, i32 %opFlags.coerce) #17
  br label %return

if.end:                                           ; preds = %entry
  %bf.set.i = or i32 %bf.load.i, 1
  store i32 %bf.set.i, ptr %flags_.i, align 4
  br label %return

return:                                           ; preds = %if.end, %if.then
  %retval.sroa.0.0.insert.insert = phi i32 [ %call8, %if.then ], [ 257, %if.end ]
  ret i32 %retval.sroa.0.0.insert.insert
}